target datalayout = "e-m:e-p270:32:32-p271:32:32-p272:64:64-i64:64-i128:128-f80:128-n8:16:32:64-S128"
target triple = "x86_64-pc-linux-gnu"

%struct.strbuf = type { i64, i64, ptr }
%struct.trace_key = type { ptr, i32, i8 }
%struct.index_state = type { ptr, i32, i32, i32, i32, ptr, ptr, ptr, %struct.cache_time, i8, i32, %struct.hashmap, %struct.hashmap, %struct.object_id, ptr, ptr, ptr, ptr, ptr, ptr, ptr }
%struct.cache_time = type { i32, i32 }
%struct.hashmap = type { ptr, ptr, ptr, i32, i32, i32, i32, i8 }
%struct.object_id = type { [32 x i8], i32 }
%struct.ewah_bitmap = type { ptr, i64, i64, i64, ptr }

@trace_fsmonitor = dso_local global { ptr, i32, i8, [3 x i8] } { ptr @.str, i32 0, i8 0, [3 x i8] zeroinitializer }, align 8
@.str.5 = private unnamed_addr constant [12 x i8] c"fsmonitor.c\00", align 1
@.str.6 = private unnamed_addr constant [6 x i8] c"index\00", align 1
@.str.9 = private unnamed_addr constant [27 x i8] c"extension/fsmn/write/token\00", align 1
@.str.10 = private unnamed_addr constant [42 x i8] c"write fsmonitor extension successful '%s'\00", align 1
@.str.27 = private unnamed_addr constant [59 x i8] c"fsmonitor_dirty has more entries than the index (%lu > %u)\00", align 1

; Function Attrs: inlinehint nounwind uwtable
define internal i64 @strbuf_avail(ptr noundef %0) #4 {
  %2 = alloca ptr, align 8
  store ptr %0, ptr %2, align 8, !tbaa !41
  %3 = load ptr, ptr %2, align 8, !tbaa !41
  %4 = getelementptr inbounds nuw %struct.strbuf, ptr %3, i32 0, i32 0
  %5 = load i64, ptr %4, align 8, !tbaa !66
  %6 = icmp ne i64 %5, 0
  br i1 %6, label %7, label %16

7:                                                ; preds = %1
  %8 = load ptr, ptr %2, align 8, !tbaa !41
  %9 = getelementptr inbounds nuw %struct.strbuf, ptr %8, i32 0, i32 0
  %10 = load i64, ptr %9, align 8, !tbaa !66
  %11 = load ptr, ptr %2, align 8, !tbaa !41
  %12 = getelementptr inbounds nuw %struct.strbuf, ptr %11, i32 0, i32 1
  %13 = load i64, ptr %12, align 8, !tbaa !16
  %14 = sub i64 %10, %13
  %15 = sub i64 %14, 1
  br label %17

16:                                               ; preds = %1
  br label %17

17:                                               ; preds = %16, %7
  %18 = phi i64 [ %15, %7 ], [ 0, %16 ]
  ret i64 %18
}

; Function Attrs: inlinehint nounwind uwtable
define internal i32 @trace_pass_fl(ptr noundef %0) #4 {
  %2 = alloca ptr, align 8
  store ptr %0, ptr %2, align 8, !tbaa !44
  %3 = load ptr, ptr %2, align 8, !tbaa !44
  %4 = getelementptr inbounds nuw %struct.trace_key, ptr %3, i32 0, i32 1
  %5 = load i32, ptr %4, align 8, !tbaa !46
  %6 = icmp ne i32 %5, 0
  br i1 %6, label %15, label %7

7:                                                ; preds = %1
  %8 = load ptr, ptr %2, align 8, !tbaa !44
  %9 = getelementptr inbounds nuw %struct.trace_key, ptr %8, i32 0, i32 2
  %10 = load i8, ptr %9, align 4
  %11 = and i8 %10, 1
  %12 = zext i8 %11 to i32
  %13 = icmp ne i32 %12, 0
  %14 = xor i1 %13, true
  br label %15

15:                                               ; preds = %7, %1
  %16 = phi i1 [ true, %1 ], [ %14, %7 ]
  %17 = zext i1 %16 to i32
  ret i32 %17
}

; Function Attrs: inlinehint nounwind uwtable
define internal void @strbuf_addch(ptr noundef %0, i32 noundef %1) #4 {
  %3 = alloca ptr, align 8
  %4 = alloca i32, align 4
  store ptr %0, ptr %3, align 8, !tbaa !41
  store i32 %1, ptr %4, align 4, !tbaa !14
  %5 = load ptr, ptr %3, align 8, !tbaa !41
  %6 = call i64 @strbuf_avail(ptr noundef %5)
  %7 = icmp ne i64 %6, 0
  br i1 %7, label %10, label %8

8:                                                ; preds = %2
  %9 = load ptr, ptr %3, align 8, !tbaa !41
  call void @strbuf_grow(ptr noundef %9, i64 noundef 1)
  br label %10

10:                                               ; preds = %8, %2
  %11 = load i32, ptr %4, align 4, !tbaa !14
  %12 = trunc i32 %11 to i8
  %13 = load ptr, ptr %3, align 8, !tbaa !41
  %14 = getelementptr inbounds nuw %struct.strbuf, ptr %13, i32 0, i32 2
  %15 = load ptr, ptr %14, align 8, !tbaa !53
  %16 = load ptr, ptr %3, align 8, !tbaa !41
  %17 = getelementptr inbounds nuw %struct.strbuf, ptr %16, i32 0, i32 1
  %18 = load i64, ptr %17, align 8, !tbaa !16
  %19 = add i64 %18, 1
  store i64 %19, ptr %17, align 8, !tbaa !16
  %20 = getelementptr inbounds nuw i8, ptr %15, i64 %18
  store i8 %12, ptr %20, align 1, !tbaa !40
  %21 = load ptr, ptr %3, align 8, !tbaa !41
  %22 = getelementptr inbounds nuw %struct.strbuf, ptr %21, i32 0, i32 2
  %23 = load ptr, ptr %22, align 8, !tbaa !53
  %24 = load ptr, ptr %3, align 8, !tbaa !41
  %25 = getelementptr inbounds nuw %struct.strbuf, ptr %24, i32 0, i32 1
  %26 = load i64, ptr %25, align 8, !tbaa !16
  %27 = getelementptr inbounds nuw i8, ptr %23, i64 %26
  store i8 0, ptr %27, align 1, !tbaa !40
  ret void
}

; Function Attrs: inlinehint nounwind uwtable
define internal void @strbuf_addstr(ptr noundef %0, ptr noundef %1) #4 {
  %3 = alloca ptr, align 8
  %4 = alloca ptr, align 8
  store ptr %0, ptr %3, align 8, !tbaa !41
  store ptr %1, ptr %4, align 8, !tbaa !12
  %5 = load ptr, ptr %3, align 8, !tbaa !41
  %6 = load ptr, ptr %4, align 8, !tbaa !12
  %7 = load ptr, ptr %4, align 8, !tbaa !12
  %8 = call i64 @strlen(ptr noundef %7) #9
  call void @strbuf_add(ptr noundef %5, ptr noundef %6, i64 noundef %8)
  ret void
}

; Function Attrs: inlinehint nounwind uwtable
define internal void @put_be32(ptr noundef %0, i32 noundef %1) #4 {
  %3 = alloca ptr, align 8
  %4 = alloca i32, align 4
  %5 = alloca ptr, align 8
  store ptr %0, ptr %3, align 8, !tbaa !9
  store i32 %1, ptr %4, align 4, !tbaa !14
  call void @llvm.lifetime.start.p0(i64 8, ptr %5) #8
  %6 = load ptr, ptr %3, align 8, !tbaa !9
  store ptr %6, ptr %5, align 8, !tbaa !12
  %7 = load i32, ptr %4, align 4, !tbaa !14
  %8 = lshr i32 %7, 24
  %9 = and i32 %8, 255
  %10 = trunc i32 %9 to i8
  %11 = load ptr, ptr %5, align 8, !tbaa !12
  %12 = getelementptr inbounds i8, ptr %11, i64 0
  store i8 %10, ptr %12, align 1, !tbaa !40
  %13 = load i32, ptr %4, align 4, !tbaa !14
  %14 = lshr i32 %13, 16
  %15 = and i32 %14, 255
  %16 = trunc i32 %15 to i8
  %17 = load ptr, ptr %5, align 8, !tbaa !12
  %18 = getelementptr inbounds i8, ptr %17, i64 1
  store i8 %16, ptr %18, align 1, !tbaa !40
  %19 = load i32, ptr %4, align 4, !tbaa !14
  %20 = lshr i32 %19, 8
  %21 = and i32 %20, 255
  %22 = trunc i32 %21 to i8
  %23 = load ptr, ptr %5, align 8, !tbaa !12
  %24 = getelementptr inbounds i8, ptr %23, i64 2
  store i8 %22, ptr %24, align 1, !tbaa !40
  %25 = load i32, ptr %4, align 4, !tbaa !14
  %26 = lshr i32 %25, 0
  %27 = and i32 %26, 255
  %28 = trunc i32 %27 to i8
  %29 = load ptr, ptr %5, align 8, !tbaa !12
  %30 = getelementptr inbounds i8, ptr %29, i64 3
  store i8 %28, ptr %30, align 1, !tbaa !40
  call void @llvm.lifetime.end.p0(i64 8, ptr %5) #8
  ret void
}

; Function Attrs: nounwind uwtable
define internal void @assert_index_minimum(ptr noundef %0, i64 noundef %1) #0 {
  %3 = alloca ptr, align 8
  %4 = alloca i64, align 8
  store ptr %0, ptr %3, align 8, !tbaa !4
  store i64 %1, ptr %4, align 8, !tbaa !10
  %5 = load i64, ptr %4, align 8, !tbaa !10
  %6 = load ptr, ptr %3, align 8, !tbaa !4
  %7 = getelementptr inbounds nuw %struct.index_state, ptr %6, i32 0, i32 2
  %8 = load i32, ptr %7, align 4, !tbaa !43
  %9 = zext i32 %8 to i64
  %10 = icmp ugt i64 %5, %9
  br i1 %10, label %11, label %16

11:                                               ; preds = %2
  %12 = load i64, ptr %4, align 8, !tbaa !10
  %13 = load ptr, ptr %3, align 8, !tbaa !4
  %14 = getelementptr inbounds nuw %struct.index_state, ptr %13, i32 0, i32 2
  %15 = load i32, ptr %14, align 4, !tbaa !43
  call void (ptr, i32, ptr, ...) @BUG_fl(ptr noundef @.str.5, i32 noundef 28, ptr noundef @.str.27, i64 noundef %12, i32 noundef %15) #10
  unreachable

16:                                               ; preds = %2
  ret void
}

; Function Attrs: nounwind uwtable
define dso_local void @write_fsmonitor_extension(ptr noundef %0, ptr noundef %1) #0 {
  %3 = alloca ptr, align 8
  %4 = alloca ptr, align 8
  %5 = alloca i32, align 4
  %6 = alloca i32, align 4
  %7 = alloca i32, align 4
  %8 = alloca i32, align 4
  store ptr %0, ptr %3, align 8, !tbaa !41
  store ptr %1, ptr %4, align 8, !tbaa !4
  call void @llvm.lifetime.start.p0(i64 4, ptr %5) #8
  call void @llvm.lifetime.start.p0(i64 4, ptr %6) #8
  call void @llvm.lifetime.start.p0(i64 4, ptr %7) #8
  store i32 0, ptr %7, align 4, !tbaa !14
  call void @llvm.lifetime.start.p0(i64 4, ptr %8) #8
  store i32 0, ptr %8, align 4, !tbaa !14
  %9 = load ptr, ptr %4, align 8, !tbaa !4
  %10 = getelementptr inbounds nuw %struct.index_state, ptr %9, i32 0, i32 7
  %11 = load ptr, ptr %10, align 8, !tbaa !36
  %12 = icmp ne ptr %11, null
  br i1 %12, label %20, label %13

13:                                               ; preds = %2
  %14 = load ptr, ptr %4, align 8, !tbaa !4
  %15 = load ptr, ptr %4, align 8, !tbaa !4
  %16 = getelementptr inbounds nuw %struct.index_state, ptr %15, i32 0, i32 16
  %17 = load ptr, ptr %16, align 8, !tbaa !35
  %18 = getelementptr inbounds nuw %struct.ewah_bitmap, ptr %17, i32 0, i32 3
  %19 = load i64, ptr %18, align 8, !tbaa !37
  call void @assert_index_minimum(ptr noundef %14, i64 noundef %19)
  br label %20

20:                                               ; preds = %13, %2
  call void @put_be32(ptr noundef %5, i32 noundef 2)
  %21 = load ptr, ptr %3, align 8, !tbaa !41
  call void @strbuf_add(ptr noundef %21, ptr noundef %5, i64 noundef 4)
  %22 = load ptr, ptr %3, align 8, !tbaa !41
  %23 = load ptr, ptr %4, align 8, !tbaa !4
  %24 = getelementptr inbounds nuw %struct.index_state, ptr %23, i32 0, i32 15
  %25 = load ptr, ptr %24, align 8, !tbaa !18
  call void @strbuf_addstr(ptr noundef %22, ptr noundef %25)
  %26 = load ptr, ptr %3, align 8, !tbaa !41
  call void @strbuf_addch(ptr noundef %26, i32 noundef 0)
  %27 = load ptr, ptr %3, align 8, !tbaa !41
  %28 = getelementptr inbounds nuw %struct.strbuf, ptr %27, i32 0, i32 1
  %29 = load i64, ptr %28, align 8, !tbaa !16
  %30 = trunc i64 %29 to i32
  store i32 %30, ptr %8, align 4, !tbaa !14
  %31 = load ptr, ptr %3, align 8, !tbaa !41
  call void @strbuf_add(ptr noundef %31, ptr noundef %7, i64 noundef 4)
  %32 = load ptr, ptr %3, align 8, !tbaa !41
  %33 = getelementptr inbounds nuw %struct.strbuf, ptr %32, i32 0, i32 1
  %34 = load i64, ptr %33, align 8, !tbaa !16
  %35 = trunc i64 %34 to i32
  store i32 %35, ptr %6, align 4, !tbaa !14
  %36 = load ptr, ptr %4, align 8, !tbaa !4
  %37 = getelementptr inbounds nuw %struct.index_state, ptr %36, i32 0, i32 16
  %38 = load ptr, ptr %37, align 8, !tbaa !35
  %39 = load ptr, ptr %3, align 8, !tbaa !41
  %40 = call i32 @ewah_serialize_strbuf(ptr noundef %38, ptr noundef %39)
  %41 = load ptr, ptr %4, align 8, !tbaa !4
  %42 = getelementptr inbounds nuw %struct.index_state, ptr %41, i32 0, i32 16
  %43 = load ptr, ptr %42, align 8, !tbaa !35
  call void @ewah_free(ptr noundef %43)
  %44 = load ptr, ptr %4, align 8, !tbaa !4
  %45 = getelementptr inbounds nuw %struct.index_state, ptr %44, i32 0, i32 16
  store ptr null, ptr %45, align 8, !tbaa !35
  %46 = load ptr, ptr %3, align 8, !tbaa !41
  %47 = getelementptr inbounds nuw %struct.strbuf, ptr %46, i32 0, i32 1
  %48 = load i64, ptr %47, align 8, !tbaa !16
  %49 = load i32, ptr %6, align 4, !tbaa !14
  %50 = zext i32 %49 to i64
  %51 = sub i64 %48, %50
  %52 = trunc i64 %51 to i32
  call void @put_be32(ptr noundef %7, i32 noundef %52)
  %53 = load ptr, ptr %3, align 8, !tbaa !41
  %54 = getelementptr inbounds nuw %struct.strbuf, ptr %53, i32 0, i32 2
  %55 = load ptr, ptr %54, align 8, !tbaa !53
  %56 = load i32, ptr %8, align 4, !tbaa !14
  %57 = sext i32 %56 to i64
  %58 = getelementptr inbounds i8, ptr %55, i64 %57
  call void @llvm.memcpy.p0.p0.i64(ptr align 1 %58, ptr align 4 %7, i64 4, i1 false)
  %59 = load ptr, ptr %4, align 8, !tbaa !4
  %60 = getelementptr inbounds nuw %struct.index_state, ptr %59, i32 0, i32 15
  %61 = load ptr, ptr %60, align 8, !tbaa !18
  call void @trace2_data_string_fl(ptr noundef @.str.5, i32 noundef 150, ptr noundef @.str.6, ptr noundef null, ptr noundef @.str.9, ptr noundef %61)
  br label %62

62:                                               ; preds = %20
  %63 = call i32 @trace_pass_fl(ptr noundef @trace_fsmonitor)
  %64 = icmp ne i32 %63, 0
  br i1 %64, label %65, label %69

65:                                               ; preds = %62
  %66 = load ptr, ptr %4, align 8, !tbaa !4
  %67 = getelementptr inbounds nuw %struct.index_state, ptr %66, i32 0, i32 15
  %68 = load ptr, ptr %67, align 8, !tbaa !18
  call void (ptr, i32, ptr, ptr, ...) @trace_printf_key_fl(ptr noundef @.str.5, i32 noundef 153, ptr noundef @trace_fsmonitor, ptr noundef @.str.10, ptr noundef %68)
  br label %69

69:                                               ; preds = %65, %62
  br label %70

70:                                               ; preds = %69
  br label %71

71:                                               ; preds = %70
  call void @llvm.lifetime.end.p0(i64 4, ptr %8) #8
  call void @llvm.lifetime.end.p0(i64 4, ptr %7) #8
  call void @llvm.lifetime.end.p0(i64 4, ptr %6) #8
  call void @llvm.lifetime.end.p0(i64 4, ptr %5) #8
  ret void
}