; Function Attrs: nounwind uwtable
define dso_local void @write_fsmonitor_extension(ptr noundef %0, ptr noundef captures(none) %1) local_unnamed_addr #0 {
  %3 = alloca i32, align 4
  %4 = alloca i32, align 4
  call void @llvm.lifetime.start.p0(i64 4, ptr nonnull %3) #8
  call void @llvm.lifetime.start.p0(i64 4, ptr nonnull %4) #8
  store i32 0, ptr %4, align 4, !tbaa !40
  %5 = getelementptr inbounds nuw i8, ptr %1, i64 40
  %6 = load ptr, ptr %5, align 8, !tbaa !30
  %.not = icmp eq ptr %6, null
  br i1 %.not, label %7, label %assert_index_minimum.exit

7:                                                ; preds = %2
  %8 = getelementptr inbounds nuw i8, ptr %1, i64 216
  %9 = load ptr, ptr %8, align 8, !tbaa !29
  %10 = getelementptr inbounds nuw i8, ptr %9, i64 24
  %11 = load i64, ptr %10, align 8, !tbaa !31
  %12 = getelementptr i8, ptr %1, i64 12
  %.val = load i32, ptr %12, align 4, !tbaa !34
  %13 = zext i32 %.val to i64
  %14 = icmp ugt i64 %11, %13
  br i1 %14, label %15, label %assert_index_minimum.exit

15:                                               ; preds = %7
  tail call void (ptr, i32, ptr, ...) @BUG_fl(ptr noundef nonnull @.str.5, i32 noundef 28, ptr noundef nonnull @.str.27, i64 noundef %11, i32 noundef %.val) #10
  unreachable

assert_index_minimum.exit:                        ; preds = %7, %2
  store i8 0, ptr %3, align 4, !tbaa !4
  %16 = getelementptr inbounds nuw i8, ptr %3, i64 1
  store i8 0, ptr %16, align 1, !tbaa !4
  %17 = getelementptr inbounds nuw i8, ptr %3, i64 2
  store i8 0, ptr %17, align 2, !tbaa !4
  %18 = getelementptr inbounds nuw i8, ptr %3, i64 3
  store i8 2, ptr %18, align 1, !tbaa !4
  call void @strbuf_add(ptr noundef %0, ptr noundef nonnull %3, i64 noundef 4) #8
  %19 = getelementptr inbounds nuw i8, ptr %1, i64 208
  %20 = load ptr, ptr %19, align 8, !tbaa !12
  %21 = call i64 @strlen(ptr noundef nonnull dereferenceable(1) %20) #9
  call void @strbuf_add(ptr noundef %0, ptr noundef nonnull %20, i64 noundef %21) #8
  %22 = load i64, ptr %0, align 8, !tbaa !43
  %.not.i.i = icmp eq i64 %22, 0
  br i1 %.not.i.i, label %strbuf_avail.exit.thread.i, label %strbuf_avail.exit.i

strbuf_avail.exit.i:                              ; preds = %assert_index_minimum.exit
  %23 = getelementptr inbounds nuw i8, ptr %0, i64 8
  %24 = load i64, ptr %23, align 8, !tbaa !7
  %.neg.i = add i64 %24, 1
  %.not.i = icmp eq i64 %22, %.neg.i
  br i1 %.not.i, label %strbuf_avail.exit.thread.i, label %strbuf_addch.exit

strbuf_avail.exit.thread.i:                       ; preds = %strbuf_avail.exit.i, %assert_index_minimum.exit
  call void @strbuf_grow(ptr noundef nonnull %0, i64 noundef 1) #8
  %.phi.trans.insert.i = getelementptr inbounds nuw i8, ptr %0, i64 8
  %.pre.i = load i64, ptr %.phi.trans.insert.i, align 8, !tbaa !7
  %.pre7.i = add i64 %.pre.i, 1
  br label %strbuf_addch.exit

strbuf_addch.exit:                                ; preds = %strbuf_avail.exit.i, %strbuf_avail.exit.thread.i
  %.pre-phi.i = phi i64 [ %.pre7.i, %strbuf_avail.exit.thread.i ], [ %.neg.i, %strbuf_avail.exit.i ]
  %25 = phi i64 [ %.pre.i, %strbuf_avail.exit.thread.i ], [ %24, %strbuf_avail.exit.i ]
  %26 = getelementptr inbounds nuw i8, ptr %0, i64 16
  %27 = load ptr, ptr %26, align 8, !tbaa !44
  %28 = getelementptr inbounds nuw i8, ptr %0, i64 8
  store i64 %.pre-phi.i, ptr %28, align 8, !tbaa !7
  %29 = getelementptr inbounds nuw i8, ptr %27, i64 %25
  store i8 0, ptr %29, align 1, !tbaa !4
  %30 = load ptr, ptr %26, align 8, !tbaa !44
  %31 = load i64, ptr %28, align 8, !tbaa !7
  %32 = getelementptr inbounds nuw i8, ptr %30, i64 %31
  store i8 0, ptr %32, align 1, !tbaa !4
  %33 = load i64, ptr %28, align 8, !tbaa !7
  call void @strbuf_add(ptr noundef nonnull %0, ptr noundef nonnull %4, i64 noundef 4) #8
  %34 = load i64, ptr %28, align 8, !tbaa !7
  %35 = getelementptr inbounds nuw i8, ptr %1, i64 216
  %36 = load ptr, ptr %35, align 8, !tbaa !29
  %37 = call i32 @ewah_serialize_strbuf(ptr noundef %36, ptr noundef nonnull %0) #8
  %38 = load ptr, ptr %35, align 8, !tbaa !29
  call void @ewah_free(ptr noundef %38) #8
  store ptr null, ptr %35, align 8, !tbaa !29
  %39 = load i64, ptr %28, align 8, !tbaa !7
  %40 = sub i64 %39, %34
  %41 = lshr i64 %40, 24
  %42 = trunc i64 %41 to i8
  store i8 %42, ptr %4, align 4, !tbaa !4
  %43 = lshr i64 %40, 16
  %44 = trunc i64 %43 to i8
  %45 = getelementptr inbounds nuw i8, ptr %4, i64 1
  store i8 %44, ptr %45, align 1, !tbaa !4
  %46 = lshr i64 %40, 8
  %47 = trunc i64 %46 to i8
  %48 = getelementptr inbounds nuw i8, ptr %4, i64 2
  store i8 %47, ptr %48, align 2, !tbaa !4
  %49 = trunc i64 %40 to i8
  %50 = getelementptr inbounds nuw i8, ptr %4, i64 3
  store i8 %49, ptr %50, align 1, !tbaa !4
  %51 = load ptr, ptr %26, align 8, !tbaa !44
  %sext = shl i64 %33, 32
  %52 = ashr exact i64 %sext, 32
  %53 = getelementptr inbounds i8, ptr %51, i64 %52
  %54 = load i32, ptr %4, align 4
  store i32 %54, ptr %53, align 1
  %55 = load ptr, ptr %19, align 8, !tbaa !12
  call void @trace2_data_string_fl(ptr noundef nonnull @.str.5, i32 noundef 150, ptr noundef nonnull @.str.6, ptr noundef null, ptr noundef nonnull @.str.9, ptr noundef %55) #8
  %trace_fsmonitor.val = load i32, ptr getelementptr inbounds nuw (i8, ptr @trace_fsmonitor, i64 8), align 8, !tbaa !35
  %trace_fsmonitor.val20 = load i8, ptr getelementptr inbounds nuw (i8, ptr @trace_fsmonitor, i64 12), align 4
  %.not.i21 = icmp eq i32 %trace_fsmonitor.val, 0
  %56 = and i8 %trace_fsmonitor.val20, 1
  %.not1922 = icmp ne i8 %56, 0
  %.not19 = select i1 %.not.i21, i1 %.not1922, i1 false
  br i1 %.not19, label %59, label %57

57:                                               ; preds = %strbuf_addch.exit
  %58 = load ptr, ptr %19, align 8, !tbaa !12
  call void (ptr, i32, ptr, ptr, ...) @trace_printf_key_fl(ptr noundef nonnull @.str.5, i32 noundef 153, ptr noundef nonnull @trace_fsmonitor, ptr noundef nonnull @.str.10, ptr noundef %58) #8
  br label %59

59:                                               ; preds = %57, %strbuf_addch.exit
  call void @llvm.lifetime.end.p0(i64 4, ptr nonnull %4) #8
  call void @llvm.lifetime.end.p0(i64 4, ptr nonnull %3) #8
  ret void
}